target datalayout = "e-m:e-p270:32:32-p271:32:32-p272:64:64-i64:64-i128:128-f80:128-n8:16:32:64-S128"
target triple = "x86_64-pc-linux-gnu"

%"struct.duckdb::roaring::ContainerScanState" = type { ptr, i64, i64, i64 }

; Function Attrs: mustprogress uwtable
define void @_ZN6duckdb7roaring16RoaringScanState4SkipERNS0_18ContainerScanStateEm(ptr noundef nonnull align 8 dereferenceable(200) %0, ptr noundef nonnull align 8 dereferenceable(32) %1, i64 noundef %2) #0 align 2 {
  %4 = alloca ptr, align 8
  %5 = alloca ptr, align 8
  %6 = alloca i64, align 8
  store ptr %0, ptr %4, align 8, !tbaa !164
  store ptr %1, ptr %5, align 8, !tbaa !204
  store i64 %2, ptr %6, align 8, !tbaa !8
  %7 = load ptr, ptr %5, align 8, !tbaa !204
  %8 = getelementptr inbounds nuw %"struct.duckdb::roaring::ContainerScanState", ptr %7, i32 0, i32 3
  %9 = load i64, ptr %8, align 8, !tbaa !208
  %10 = load i64, ptr %6, align 8, !tbaa !8
  %11 = add i64 %9, %10
  %12 = load ptr, ptr %5, align 8, !tbaa !204
  %13 = getelementptr inbounds nuw %"struct.duckdb::roaring::ContainerScanState", ptr %12, i32 0, i32 2
  %14 = load i64, ptr %13, align 8, !tbaa !206
  %15 = icmp eq i64 %11, %14
  br i1 %15, label %16, label %22

16:                                               ; preds = %3
  %17 = load ptr, ptr %5, align 8, !tbaa !204
  %18 = getelementptr inbounds nuw %"struct.duckdb::roaring::ContainerScanState", ptr %17, i32 0, i32 2
  %19 = load i64, ptr %18, align 8, !tbaa !206
  %20 = load ptr, ptr %5, align 8, !tbaa !204
  %21 = getelementptr inbounds nuw %"struct.duckdb::roaring::ContainerScanState", ptr %20, i32 0, i32 3
  store i64 %19, ptr %21, align 8, !tbaa !208
  br label %28

22:                                               ; preds = %3
  %23 = load ptr, ptr %5, align 8, !tbaa !204
  %24 = load i64, ptr %6, align 8, !tbaa !8
  %25 = load ptr, ptr %23, align 8, !tbaa !242
  %26 = getelementptr inbounds ptr, ptr %25, i64 3
  %27 = load ptr, ptr %26, align 8
  call void %27(ptr noundef nonnull align 8 dereferenceable(32) %23, i64 noundef %24)
  br label %28

28:                                               ; preds = %22, %16
  ret void
}