; Function Attrs: mustprogress uwtable
define void @_ZN6duckdb7roaring16RoaringScanState4SkipERNS0_18ContainerScanStateEm(ptr noundef nonnull readnone align 8 captures(none) dereferenceable(200) %0, ptr noundef nonnull align 8 dereferenceable(32) %1, i64 noundef %2) local_unnamed_addr #0 align 2 {
  %4 = getelementptr inbounds nuw i8, ptr %1, i64 24
  %5 = load i64, ptr %4, align 8, !tbaa !186
  %6 = add i64 %5, %2
  %7 = getelementptr inbounds nuw i8, ptr %1, i64 16
  %8 = load i64, ptr %7, align 8, !tbaa !184
  %9 = icmp eq i64 %6, %8
  br i1 %9, label %10, label %11

10:                                               ; preds = %3
  store i64 %6, ptr %4, align 8, !tbaa !186
  br label %15

11:                                               ; preds = %3
  %12 = load ptr, ptr %1, align 8, !tbaa !136
  %13 = getelementptr inbounds nuw i8, ptr %12, i64 24
  %14 = load ptr, ptr %13, align 8
  tail call void %14(ptr noundef nonnull align 8 dereferenceable(32) %1, i64 noundef %2)
  br label %15

15:                                               ; preds = %11, %10
  ret void
}